target datalayout = "e-m:e-p270:32:32-p271:32:32-p272:64:64-i64:64-i128:128-f80:128-n8:16:32:64-S128"
target triple = "x86_64-pc-linux-gnu"

%struct.AVFilterContext = type { ptr, ptr, ptr, ptr, ptr, i32, ptr, ptr, i32, ptr, ptr, i32, i32, ptr, ptr, ptr, ptr, i32, ptr, i32, i32 }
%struct.RemapContext = type { ptr, i32, i32, i32, i32, [4 x i8], [4 x i32], %struct.FFFrameSync, ptr }
%struct.FFFrameSync = type { ptr, ptr, i32, %struct.AVRational, i64, ptr, ptr, i32, i32, i8, i8, ptr, i32, i32, i32, i32 }
%struct.AVRational = type { i32, i32 }
%struct.AVFilterFormatsConfig = type { ptr, ptr, ptr, ptr, ptr }
%struct.AVFilterLink = type { ptr, ptr, ptr, ptr, i32, i32, i32, i32, %struct.AVRational, i32, i32, i32, %struct.AVChannelLayout, %struct.AVRational, ptr, i32, %struct.AVFilterFormatsConfig, %struct.AVFilterFormatsConfig }
%struct.AVChannelLayout = type { i32, i32, %union.anon.1, ptr }
%union.anon.1 = type { i64 }
%struct.ThreadData = type { ptr, ptr, ptr, ptr, i32, i32, i32 }
%struct.AVFrame = type { [8 x ptr], [8 x i32], ptr, i32, i32, i32, i32, i32, %struct.AVRational, i64, i64, %struct.AVRational, i32, ptr, i32, i32, [8 x ptr], ptr, i32, ptr, i32, i32, i32, i32, i32, i32, i32, i64, ptr, i32, ptr, ptr, i64, i64, i64, i64, ptr, %struct.AVChannelLayout, i64 }

; Function Attrs: nounwind uwtable
define internal i32 @process_frame(ptr noundef %0) #1 {
  %2 = alloca i32, align 4
  %3 = alloca ptr, align 8
  %4 = alloca ptr, align 8
  %5 = alloca ptr, align 8
  %6 = alloca ptr, align 8
  %7 = alloca ptr, align 8
  %8 = alloca ptr, align 8
  %9 = alloca ptr, align 8
  %10 = alloca ptr, align 8
  %11 = alloca i32, align 4
  %12 = alloca i32, align 4
  %13 = alloca %struct.ThreadData, align 8
  store ptr %0, ptr %3, align 8, !tbaa !113
  call void @llvm.lifetime.start.p0(i64 8, ptr %4) #8
  %14 = load ptr, ptr %3, align 8, !tbaa !113
  %15 = getelementptr inbounds nuw %struct.FFFrameSync, ptr %14, i32 0, i32 1
  %16 = load ptr, ptr %15, align 8, !tbaa !115
  store ptr %16, ptr %4, align 8, !tbaa !4
  call void @llvm.lifetime.start.p0(i64 8, ptr %5) #8
  %17 = load ptr, ptr %3, align 8, !tbaa !113
  %18 = getelementptr inbounds nuw %struct.FFFrameSync, ptr %17, i32 0, i32 6
  %19 = load ptr, ptr %18, align 8, !tbaa !116
  store ptr %19, ptr %5, align 8, !tbaa !22
  call void @llvm.lifetime.start.p0(i64 8, ptr %6) #8
  %20 = load ptr, ptr %4, align 8, !tbaa !4
  %21 = getelementptr inbounds nuw %struct.AVFilterContext, ptr %20, i32 0, i32 7
  %22 = load ptr, ptr %21, align 8, !tbaa !117
  %23 = getelementptr inbounds ptr, ptr %22, i64 0
  %24 = load ptr, ptr %23, align 8, !tbaa !37
  store ptr %24, ptr %6, align 8, !tbaa !37
  call void @llvm.lifetime.start.p0(i64 8, ptr %7) #8
  call void @llvm.lifetime.start.p0(i64 8, ptr %8) #8
  call void @llvm.lifetime.start.p0(i64 8, ptr %9) #8
  call void @llvm.lifetime.start.p0(i64 8, ptr %10) #8
  call void @llvm.lifetime.start.p0(i64 4, ptr %11) #8
  %25 = load ptr, ptr %5, align 8, !tbaa !22
  %26 = getelementptr inbounds nuw %struct.RemapContext, ptr %25, i32 0, i32 7
  %27 = call i32 @ff_framesync_get_frame(ptr noundef %26, i32 noundef 0, ptr noundef %8, i32 noundef 0)
  store i32 %27, ptr %11, align 4, !tbaa !36
  %28 = icmp slt i32 %27, 0
  br i1 %28, label %39, label %29

29:                                               ; preds = %1
  %30 = load ptr, ptr %5, align 8, !tbaa !22
  %31 = getelementptr inbounds nuw %struct.RemapContext, ptr %30, i32 0, i32 7
  %32 = call i32 @ff_framesync_get_frame(ptr noundef %31, i32 noundef 1, ptr noundef %9, i32 noundef 0)
  store i32 %32, ptr %11, align 4, !tbaa !36
  %33 = icmp slt i32 %32, 0
  br i1 %33, label %39, label %34

34:                                               ; preds = %29
  %35 = load ptr, ptr %5, align 8, !tbaa !22
  %36 = getelementptr inbounds nuw %struct.RemapContext, ptr %35, i32 0, i32 7
  %37 = call i32 @ff_framesync_get_frame(ptr noundef %36, i32 noundef 2, ptr noundef %10, i32 noundef 0)
  store i32 %37, ptr %11, align 4, !tbaa !36
  %38 = icmp slt i32 %37, 0
  br i1 %38, label %39, label %41

39:                                               ; preds = %34, %29, %1
  %40 = load i32, ptr %11, align 4, !tbaa !36
  store i32 %40, ptr %2, align 4
  store i32 1, ptr %12, align 4
  br label %117

41:                                               ; preds = %34
  call void @llvm.lifetime.start.p0(i64 48, ptr %13) #8
  %42 = load ptr, ptr %6, align 8, !tbaa !37
  %43 = load ptr, ptr %6, align 8, !tbaa !37
  %44 = getelementptr inbounds nuw %struct.AVFilterLink, ptr %43, i32 0, i32 6
  %45 = load i32, ptr %44, align 8, !tbaa !99
  %46 = load ptr, ptr %6, align 8, !tbaa !37
  %47 = getelementptr inbounds nuw %struct.AVFilterLink, ptr %46, i32 0, i32 7
  %48 = load i32, ptr %47, align 4, !tbaa !100
  %49 = call ptr @ff_get_video_buffer(ptr noundef %42, i32 noundef %45, i32 noundef %48)
  store ptr %49, ptr %7, align 8, !tbaa !64
  %50 = load ptr, ptr %7, align 8, !tbaa !64
  %51 = icmp ne ptr %50, null
  br i1 %51, label %53, label %52

52:                                               ; preds = %41
  store i32 -12, ptr %2, align 4
  store i32 1, ptr %12, align 4
  br label %97

53:                                               ; preds = %41
  %54 = load ptr, ptr %7, align 8, !tbaa !64
  %55 = load ptr, ptr %8, align 8, !tbaa !64
  %56 = call i32 @av_frame_copy_props(ptr noundef %54, ptr noundef %55)
  %57 = load ptr, ptr %8, align 8, !tbaa !64
  %58 = getelementptr inbounds nuw %struct.ThreadData, ptr %13, i32 0, i32 0
  store ptr %57, ptr %58, align 8, !tbaa !61
  %59 = load ptr, ptr %9, align 8, !tbaa !64
  %60 = getelementptr inbounds nuw %struct.ThreadData, ptr %13, i32 0, i32 1
  store ptr %59, ptr %60, align 8, !tbaa !65
  %61 = load ptr, ptr %10, align 8, !tbaa !64
  %62 = getelementptr inbounds nuw %struct.ThreadData, ptr %13, i32 0, i32 2
  store ptr %61, ptr %62, align 8, !tbaa !66
  %63 = load ptr, ptr %7, align 8, !tbaa !64
  %64 = getelementptr inbounds nuw %struct.ThreadData, ptr %13, i32 0, i32 3
  store ptr %63, ptr %64, align 8, !tbaa !67
  %65 = load ptr, ptr %5, align 8, !tbaa !22
  %66 = getelementptr inbounds nuw %struct.RemapContext, ptr %65, i32 0, i32 2
  %67 = load i32, ptr %66, align 4, !tbaa !52
  %68 = getelementptr inbounds nuw %struct.ThreadData, ptr %13, i32 0, i32 4
  store i32 %67, ptr %68, align 8, !tbaa !73
  %69 = load ptr, ptr %5, align 8, !tbaa !22
  %70 = getelementptr inbounds nuw %struct.RemapContext, ptr %69, i32 0, i32 3
  %71 = load i32, ptr %70, align 8, !tbaa !54
  %72 = getelementptr inbounds nuw %struct.ThreadData, ptr %13, i32 0, i32 5
  store i32 %71, ptr %72, align 4, !tbaa !85
  %73 = load ptr, ptr %5, align 8, !tbaa !22
  %74 = getelementptr inbounds nuw %struct.RemapContext, ptr %73, i32 0, i32 4
  %75 = load i32, ptr %74, align 4, !tbaa !57
  %76 = getelementptr inbounds nuw %struct.ThreadData, ptr %13, i32 0, i32 6
  store i32 %75, ptr %76, align 8, !tbaa !84
  %77 = load ptr, ptr %4, align 8, !tbaa !4
  %78 = load ptr, ptr %5, align 8, !tbaa !22
  %79 = getelementptr inbounds nuw %struct.RemapContext, ptr %78, i32 0, i32 8
  %80 = load ptr, ptr %79, align 8, !tbaa !56
  %81 = load ptr, ptr %6, align 8, !tbaa !37
  %82 = getelementptr inbounds nuw %struct.AVFilterLink, ptr %81, i32 0, i32 7
  %83 = load i32, ptr %82, align 4, !tbaa !100
  %84 = load ptr, ptr %4, align 8, !tbaa !4
  %85 = call i32 @ff_filter_get_nb_threads(ptr noundef %84) #9
  %86 = icmp sgt i32 %83, %85
  br i1 %86, label %87, label %90

87:                                               ; preds = %53
  %88 = load ptr, ptr %4, align 8, !tbaa !4
  %89 = call i32 @ff_filter_get_nb_threads(ptr noundef %88) #9
  br label %94

90:                                               ; preds = %53
  %91 = load ptr, ptr %6, align 8, !tbaa !37
  %92 = getelementptr inbounds nuw %struct.AVFilterLink, ptr %91, i32 0, i32 7
  %93 = load i32, ptr %92, align 4, !tbaa !100
  br label %94

94:                                               ; preds = %90, %87
  %95 = phi i32 [ %89, %87 ], [ %93, %90 ]
  %96 = call i32 @ff_filter_execute(ptr noundef %77, ptr noundef %80, ptr noundef %13, ptr noundef null, i32 noundef %95)
  store i32 0, ptr %12, align 4
  br label %97

97:                                               ; preds = %94, %52
  call void @llvm.lifetime.end.p0(i64 48, ptr %13) #8
  %98 = load i32, ptr %12, align 4
  switch i32 %98, label %117 [
    i32 0, label %99
  ]

99:                                               ; preds = %97
  %100 = load ptr, ptr %5, align 8, !tbaa !22
  %101 = getelementptr inbounds nuw %struct.RemapContext, ptr %100, i32 0, i32 7
  %102 = getelementptr inbounds nuw %struct.FFFrameSync, ptr %101, i32 0, i32 4
  %103 = load i64, ptr %102, align 8, !tbaa !118
  %104 = load ptr, ptr %5, align 8, !tbaa !22
  %105 = getelementptr inbounds nuw %struct.RemapContext, ptr %104, i32 0, i32 7
  %106 = getelementptr inbounds nuw %struct.FFFrameSync, ptr %105, i32 0, i32 3
  %107 = load ptr, ptr %6, align 8, !tbaa !37
  %108 = getelementptr inbounds nuw %struct.AVFilterLink, ptr %107, i32 0, i32 13
  %109 = load i64, ptr %106, align 4
  %110 = load i64, ptr %108, align 8
  %111 = call i64 @av_rescale_q(i64 noundef %103, i64 %109, i64 %110) #10
  %112 = load ptr, ptr %7, align 8, !tbaa !64
  %113 = getelementptr inbounds nuw %struct.AVFrame, ptr %112, i32 0, i32 9
  store i64 %111, ptr %113, align 8, !tbaa !119
  %114 = load ptr, ptr %6, align 8, !tbaa !37
  %115 = load ptr, ptr %7, align 8, !tbaa !64
  %116 = call i32 @ff_filter_frame(ptr noundef %114, ptr noundef %115)
  store i32 %116, ptr %2, align 4
  store i32 1, ptr %12, align 4
  br label %117

117:                                              ; preds = %99, %97, %39
  call void @llvm.lifetime.end.p0(i64 4, ptr %11) #8
  call void @llvm.lifetime.end.p0(i64 8, ptr %10) #8
  call void @llvm.lifetime.end.p0(i64 8, ptr %9) #8
  call void @llvm.lifetime.end.p0(i64 8, ptr %8) #8
  call void @llvm.lifetime.end.p0(i64 8, ptr %7) #8
  call void @llvm.lifetime.end.p0(i64 8, ptr %6) #8
  call void @llvm.lifetime.end.p0(i64 8, ptr %5) #8
  call void @llvm.lifetime.end.p0(i64 8, ptr %4) #8
  %118 = load i32, ptr %2, align 4
  ret i32 %118
}