; Function Attrs: nounwind uwtable
define internal i32 @process_frame(ptr noundef readonly captures(none) %0) #1 {
  %2 = alloca ptr, align 8
  %3 = alloca ptr, align 8
  %4 = alloca ptr, align 8
  %5 = alloca %struct.ThreadData, align 8
  %6 = getelementptr inbounds nuw i8, ptr %0, i64 8
  %7 = load ptr, ptr %6, align 8, !tbaa !96
  %8 = getelementptr inbounds nuw i8, ptr %0, i64 48
  %9 = load ptr, ptr %8, align 8, !tbaa !97
  %10 = getelementptr inbounds nuw i8, ptr %7, i64 56
  %11 = load ptr, ptr %10, align 8, !tbaa !98
  %12 = load ptr, ptr %11, align 8, !tbaa !82
  call void @llvm.lifetime.start.p0(i64 8, ptr nonnull %2) #8
  call void @llvm.lifetime.start.p0(i64 8, ptr nonnull %3) #8
  call void @llvm.lifetime.start.p0(i64 8, ptr nonnull %4) #8
  %13 = getelementptr inbounds nuw i8, ptr %9, i64 48
  %14 = call i32 @ff_framesync_get_frame(ptr noundef nonnull %13, i32 noundef 0, ptr noundef nonnull %2, i32 noundef 0) #8
  %15 = icmp slt i32 %14, 0
  br i1 %15, label %60, label %16

16:                                               ; preds = %1
  %17 = call i32 @ff_framesync_get_frame(ptr noundef nonnull %13, i32 noundef 1, ptr noundef nonnull %3, i32 noundef 0) #8
  %18 = icmp slt i32 %17, 0
  br i1 %18, label %60, label %19

19:                                               ; preds = %16
  %20 = call i32 @ff_framesync_get_frame(ptr noundef nonnull %13, i32 noundef 2, ptr noundef nonnull %4, i32 noundef 0) #8
  %21 = icmp slt i32 %20, 0
  br i1 %21, label %60, label %22

22:                                               ; preds = %19
  call void @llvm.lifetime.start.p0(i64 48, ptr nonnull %5) #8
  %23 = getelementptr inbounds nuw i8, ptr %12, i64 40
  %24 = load i32, ptr %23, align 8, !tbaa !84
  %25 = getelementptr inbounds nuw i8, ptr %12, i64 44
  %26 = load i32, ptr %25, align 4, !tbaa !85
  %27 = call ptr @ff_get_video_buffer(ptr noundef %12, i32 noundef %24, i32 noundef %26) #8
  %.not.not = icmp eq ptr %27, null
  br i1 %.not.not, label %.critedge, label %28

28:                                               ; preds = %22
  %29 = load ptr, ptr %2, align 8, !tbaa !99
  %30 = call i32 @av_frame_copy_props(ptr noundef nonnull %27, ptr noundef %29) #8
  %31 = load ptr, ptr %2, align 8, !tbaa !99
  store ptr %31, ptr %5, align 8, !tbaa !48
  %32 = load ptr, ptr %3, align 8, !tbaa !99
  %33 = getelementptr inbounds nuw i8, ptr %5, i64 8
  store ptr %32, ptr %33, align 8, !tbaa !51
  %34 = load ptr, ptr %4, align 8, !tbaa !99
  %35 = getelementptr inbounds nuw i8, ptr %5, i64 16
  store ptr %34, ptr %35, align 8, !tbaa !52
  %36 = getelementptr inbounds nuw i8, ptr %5, i64 24
  store ptr %27, ptr %36, align 8, !tbaa !53
  %37 = getelementptr inbounds nuw i8, ptr %9, i64 12
  %38 = load i32, ptr %37, align 4, !tbaa !41
  %39 = getelementptr inbounds nuw i8, ptr %5, i64 32
  store i32 %38, ptr %39, align 8, !tbaa !59
  %40 = getelementptr inbounds nuw i8, ptr %9, i64 16
  %41 = load i32, ptr %40, align 8, !tbaa !43
  %42 = getelementptr inbounds nuw i8, ptr %5, i64 36
  store i32 %41, ptr %42, align 4, !tbaa !70
  %43 = getelementptr inbounds nuw i8, ptr %9, i64 20
  %44 = load i32, ptr %43, align 4, !tbaa !47
  %45 = getelementptr inbounds nuw i8, ptr %5, i64 40
  store i32 %44, ptr %45, align 8, !tbaa !69
  %46 = getelementptr inbounds nuw i8, ptr %9, i64 144
  %47 = load ptr, ptr %46, align 8, !tbaa !46
  %48 = load i32, ptr %25, align 4, !tbaa !85
  %49 = call i32 @ff_filter_get_nb_threads(ptr noundef nonnull %7) #9
  %. = call i32 @llvm.smin.i32(i32 %48, i32 %49)
  %50 = call i32 @ff_filter_execute(ptr noundef nonnull %7, ptr noundef %47, ptr noundef nonnull %5, ptr noundef null, i32 noundef %.) #8
  call void @llvm.lifetime.end.p0(i64 48, ptr nonnull %5) #8
  %51 = getelementptr inbounds nuw i8, ptr %9, i64 80
  %52 = load i64, ptr %51, align 8, !tbaa !100
  %53 = getelementptr inbounds nuw i8, ptr %9, i64 68
  %54 = getelementptr inbounds nuw i8, ptr %12, i64 96
  %55 = load i64, ptr %53, align 4
  %56 = load i64, ptr %54, align 8
  %57 = call i64 @av_rescale_q(i64 noundef %52, i64 %55, i64 %56) #10
  %58 = getelementptr inbounds nuw i8, ptr %27, i64 136
  store i64 %57, ptr %58, align 8, !tbaa !101
  %59 = call i32 @ff_filter_frame(ptr noundef nonnull %12, ptr noundef nonnull %27) #8
  br label %60

.critedge:                                        ; preds = %22
  call void @llvm.lifetime.end.p0(i64 48, ptr nonnull %5) #8
  br label %60

60:                                               ; preds = %.critedge, %1, %16, %19, %28
  %.030 = phi i32 [ %59, %28 ], [ %14, %1 ], [ %17, %16 ], [ %20, %19 ], [ -12, %.critedge ]
  call void @llvm.lifetime.end.p0(i64 8, ptr nonnull %4) #8
  call void @llvm.lifetime.end.p0(i64 8, ptr nonnull %3) #8
  call void @llvm.lifetime.end.p0(i64 8, ptr nonnull %2) #8
  ret i32 %.030
}